

Microchip MPLAB XC8 Assembler V2.05 build -831301201 
                                                                                               Tue Feb 25 09:35:56 2020

Microchip MPLAB XC8 C Compiler v2.05 (Free license) build 20181220022703 Og1 
     1                           	processor	12F1572
     2                           	opt	pw 120
     3                           	opt	flic
     4                           	psect	nvCOMMON,global,class=COMMON,space=1,delta=1
     5                           	psect	cinit,global,class=CODE,merge=1,delta=2
     6                           	psect	bssCOMMON,global,class=COMMON,space=1,delta=1
     7                           	psect	cstackCOMMON,global,class=COMMON,space=1,delta=1
     8                           	psect	maintext,global,class=CODE,merge=1,split=1,delta=2
     9                           	psect	text1,local,class=CODE,merge=1,delta=2
    10                           	psect	text2,local,class=CODE,merge=1,delta=2
    11                           	psect	text3,local,class=CODE,merge=1,delta=2
    12                           	psect	text4,local,class=CODE,merge=1,delta=2
    13                           	psect	text5,local,class=CODE,merge=1,delta=2
    14                           	psect	text6,local,class=CODE,merge=1,delta=2
    15                           	psect	text7,local,class=CODE,merge=1,delta=2
    16                           	psect	text8,local,class=CODE,merge=1,delta=2
    17                           	psect	text9,local,class=CODE,merge=1,delta=2
    18                           	dabs	1,0x7E,2
    19  0000                     
    20                           ; Version 2.05
    21                           ; Generated 20/12/2018 GMT
    22                           ; 
    23                           ; Copyright © 2018, Microchip Technology Inc. and its subsidiaries ("Microchip")
    24                           ; All rights reserved.
    25                           ; 
    26                           ; This software is developed by Microchip Technology Inc. and its subsidiaries ("Microch
      +                          ip").
    27                           ; 
    28                           ; Redistribution and use in source and binary forms, with or without modification, are
    29                           ; permitted provided that the following conditions are met:
    30                           ; 
    31                           ;     1. Redistributions of source code must retain the above copyright notice, this lis
      +                          t of
    32                           ;        conditions and the following disclaimer.
    33                           ; 
    34                           ;     2. Redistributions in binary form must reproduce the above copyright notice, this 
      +                          list
    35                           ;        of conditions and the following disclaimer in the documentation and/or other
    36                           ;        materials provided with the distribution.
    37                           ; 
    38                           ;     3. Microchip's name may not be used to endorse or promote products derived from th
      +                          is
    39                           ;        software without specific prior written permission.
    40                           ; 
    41                           ; THIS SOFTWARE IS PROVIDED BY MICROCHIP "AS IS" AND ANY EXPRESS OR IMPLIED WARRANTIES,
    42                           ; INCLUDING, BUT NOT LIMITED TO, THE IMPLIED WARRANTIES OF MERCHANTABILITY AND FITNESS F
      +                          OR
    43                           ; PURPOSE ARE DISCLAIMED.  IN NO EVENT SHALL MICROCHIP BE LIABLE FOR ANY DIRECT, INDIREC
      +                          T,
    44                           ; INCIDENTAL, SPECIAL, EXEMPLARY, OR CONSEQUENTIAL DAMAGES (INCLUDING BUT NOT LIMITED TO
    45                           ; PROCUREMENT OF SUBSTITUTE GOODS OR SERVICES; LOSS OF USE, DATA OR PROFITS; OR BUSINESS
    46                           ; INTERRUPTION) HOWSOEVER CAUSED AND ON ANY THEORY OF LIABILITY, WHETHER IN CONTRACT, ST
      +                          RICT
    47                           ; LIABILITY, OR TORT (INCLUDING NEGLIGENCE OR OTHERWISE) ARISING IN ANY WAY OUT OF THE U
      +                          SE OF
    48                           ; THIS SOFTWARE, EVEN IF ADVISED OF THE POSSIBILITY OF SUCH DAMAGE.
    49                           ; 
    50                           ; 
    51                           ; Code-generator required, PIC12F1572 Definitions
    52                           ; 
    53                           ; SFR Addresses
    54  0000                     	;# 
    55  0001                     	;# 
    56  0002                     	;# 
    57  0003                     	;# 
    58  0004                     	;# 
    59  0005                     	;# 
    60  0006                     	;# 
    61  0007                     	;# 
    62  0008                     	;# 
    63  0009                     	;# 
    64  000A                     	;# 
    65  000B                     	;# 
    66  000C                     	;# 
    67  0011                     	;# 
    68  0012                     	;# 
    69  0013                     	;# 
    70  0015                     	;# 
    71  0016                     	;# 
    72  0016                     	;# 
    73  0017                     	;# 
    74  0018                     	;# 
    75  0019                     	;# 
    76  001A                     	;# 
    77  001B                     	;# 
    78  001C                     	;# 
    79  008C                     	;# 
    80  0091                     	;# 
    81  0092                     	;# 
    82  0093                     	;# 
    83  0095                     	;# 
    84  0096                     	;# 
    85  0097                     	;# 
    86  0098                     	;# 
    87  0099                     	;# 
    88  009A                     	;# 
    89  009B                     	;# 
    90  009B                     	;# 
    91  009C                     	;# 
    92  009D                     	;# 
    93  009E                     	;# 
    94  009F                     	;# 
    95  010C                     	;# 
    96  0111                     	;# 
    97  0112                     	;# 
    98  0115                     	;# 
    99  0116                     	;# 
   100  0117                     	;# 
   101  0118                     	;# 
   102  0119                     	;# 
   103  011D                     	;# 
   104  011D                     	;# 
   105  018C                     	;# 
   106  0191                     	;# 
   107  0191                     	;# 
   108  0192                     	;# 
   109  0193                     	;# 
   110  0193                     	;# 
   111  0194                     	;# 
   112  0195                     	;# 
   113  0196                     	;# 
   114  0197                     	;# 
   115  0199                     	;# 
   116  019A                     	;# 
   117  019B                     	;# 
   118  019B                     	;# 
   119  019C                     	;# 
   120  019D                     	;# 
   121  019E                     	;# 
   122  019F                     	;# 
   123  020C                     	;# 
   124  028C                     	;# 
   125  030C                     	;# 
   126  038C                     	;# 
   127  0391                     	;# 
   128  0392                     	;# 
   129  0393                     	;# 
   130  0691                     	;# 
   131  0692                     	;# 
   132  0693                     	;# 
   133  0694                     	;# 
   134  0695                     	;# 
   135  0D8E                     	;# 
   136  0D8F                     	;# 
   137  0D90                     	;# 
   138  0D91                     	;# 
   139  0D91                     	;# 
   140  0D92                     	;# 
   141  0D93                     	;# 
   142  0D93                     	;# 
   143  0D94                     	;# 
   144  0D95                     	;# 
   145  0D95                     	;# 
   146  0D96                     	;# 
   147  0D97                     	;# 
   148  0D97                     	;# 
   149  0D98                     	;# 
   150  0D99                     	;# 
   151  0D99                     	;# 
   152  0D9A                     	;# 
   153  0D9B                     	;# 
   154  0D9C                     	;# 
   155  0D9C                     	;# 
   156  0D9D                     	;# 
   157  0D9D                     	;# 
   158  0D9E                     	;# 
   159  0D9F                     	;# 
   160  0DA0                     	;# 
   161  0DA1                     	;# 
   162  0DA1                     	;# 
   163  0DA2                     	;# 
   164  0DA3                     	;# 
   165  0DA3                     	;# 
   166  0DA4                     	;# 
   167  0DA5                     	;# 
   168  0DA5                     	;# 
   169  0DA6                     	;# 
   170  0DA7                     	;# 
   171  0DA7                     	;# 
   172  0DA8                     	;# 
   173  0DA9                     	;# 
   174  0DA9                     	;# 
   175  0DAA                     	;# 
   176  0DAB                     	;# 
   177  0DAC                     	;# 
   178  0DAC                     	;# 
   179  0DAD                     	;# 
   180  0DAD                     	;# 
   181  0DAE                     	;# 
   182  0DAF                     	;# 
   183  0DB0                     	;# 
   184  0DB1                     	;# 
   185  0DB1                     	;# 
   186  0DB2                     	;# 
   187  0DB3                     	;# 
   188  0DB3                     	;# 
   189  0DB4                     	;# 
   190  0DB5                     	;# 
   191  0DB5                     	;# 
   192  0DB6                     	;# 
   193  0DB7                     	;# 
   194  0DB7                     	;# 
   195  0DB8                     	;# 
   196  0DB9                     	;# 
   197  0DB9                     	;# 
   198  0DBA                     	;# 
   199  0DBB                     	;# 
   200  0DBC                     	;# 
   201  0DBC                     	;# 
   202  0DBD                     	;# 
   203  0DBD                     	;# 
   204  0DBE                     	;# 
   205  0DBF                     	;# 
   206  0DC0                     	;# 
   207  0FE4                     	;# 
   208  0FE5                     	;# 
   209  0FE6                     	;# 
   210  0FE7                     	;# 
   211  0FE8                     	;# 
   212  0FE8                     	;# 
   213  0FE9                     	;# 
   214  0FEA                     	;# 
   215  0FEA                     	;# 
   216  0FEB                     	;# 
   217  0FED                     	;# 
   218  0FEE                     	;# 
   219  0FEE                     	;# 
   220  0FEF                     	;# 
   221  0000                     	;# 
   222  0001                     	;# 
   223  0002                     	;# 
   224  0003                     	;# 
   225  0004                     	;# 
   226  0005                     	;# 
   227  0006                     	;# 
   228  0007                     	;# 
   229  0008                     	;# 
   230  0009                     	;# 
   231  000A                     	;# 
   232  000B                     	;# 
   233  000C                     	;# 
   234  0011                     	;# 
   235  0012                     	;# 
   236  0013                     	;# 
   237  0015                     	;# 
   238  0016                     	;# 
   239  0016                     	;# 
   240  0017                     	;# 
   241  0018                     	;# 
   242  0019                     	;# 
   243  001A                     	;# 
   244  001B                     	;# 
   245  001C                     	;# 
   246  008C                     	;# 
   247  0091                     	;# 
   248  0092                     	;# 
   249  0093                     	;# 
   250  0095                     	;# 
   251  0096                     	;# 
   252  0097                     	;# 
   253  0098                     	;# 
   254  0099                     	;# 
   255  009A                     	;# 
   256  009B                     	;# 
   257  009B                     	;# 
   258  009C                     	;# 
   259  009D                     	;# 
   260  009E                     	;# 
   261  009F                     	;# 
   262  010C                     	;# 
   263  0111                     	;# 
   264  0112                     	;# 
   265  0115                     	;# 
   266  0116                     	;# 
   267  0117                     	;# 
   268  0118                     	;# 
   269  0119                     	;# 
   270  011D                     	;# 
   271  011D                     	;# 
   272  018C                     	;# 
   273  0191                     	;# 
   274  0191                     	;# 
   275  0192                     	;# 
   276  0193                     	;# 
   277  0193                     	;# 
   278  0194                     	;# 
   279  0195                     	;# 
   280  0196                     	;# 
   281  0197                     	;# 
   282  0199                     	;# 
   283  019A                     	;# 
   284  019B                     	;# 
   285  019B                     	;# 
   286  019C                     	;# 
   287  019D                     	;# 
   288  019E                     	;# 
   289  019F                     	;# 
   290  020C                     	;# 
   291  028C                     	;# 
   292  030C                     	;# 
   293  038C                     	;# 
   294  0391                     	;# 
   295  0392                     	;# 
   296  0393                     	;# 
   297  0691                     	;# 
   298  0692                     	;# 
   299  0693                     	;# 
   300  0694                     	;# 
   301  0695                     	;# 
   302  0D8E                     	;# 
   303  0D8F                     	;# 
   304  0D90                     	;# 
   305  0D91                     	;# 
   306  0D91                     	;# 
   307  0D92                     	;# 
   308  0D93                     	;# 
   309  0D93                     	;# 
   310  0D94                     	;# 
   311  0D95                     	;# 
   312  0D95                     	;# 
   313  0D96                     	;# 
   314  0D97                     	;# 
   315  0D97                     	;# 
   316  0D98                     	;# 
   317  0D99                     	;# 
   318  0D99                     	;# 
   319  0D9A                     	;# 
   320  0D9B                     	;# 
   321  0D9C                     	;# 
   322  0D9C                     	;# 
   323  0D9D                     	;# 
   324  0D9D                     	;# 
   325  0D9E                     	;# 
   326  0D9F                     	;# 
   327  0DA0                     	;# 
   328  0DA1                     	;# 
   329  0DA1                     	;# 
   330  0DA2                     	;# 
   331  0DA3                     	;# 
   332  0DA3                     	;# 
   333  0DA4                     	;# 
   334  0DA5                     	;# 
   335  0DA5                     	;# 
   336  0DA6                     	;# 
   337  0DA7                     	;# 
   338  0DA7                     	;# 
   339  0DA8                     	;# 
   340  0DA9                     	;# 
   341  0DA9                     	;# 
   342  0DAA                     	;# 
   343  0DAB                     	;# 
   344  0DAC                     	;# 
   345  0DAC                     	;# 
   346  0DAD                     	;# 
   347  0DAD                     	;# 
   348  0DAE                     	;# 
   349  0DAF                     	;# 
   350  0DB0                     	;# 
   351  0DB1                     	;# 
   352  0DB1                     	;# 
   353  0DB2                     	;# 
   354  0DB3                     	;# 
   355  0DB3                     	;# 
   356  0DB4                     	;# 
   357  0DB5                     	;# 
   358  0DB5                     	;# 
   359  0DB6                     	;# 
   360  0DB7                     	;# 
   361  0DB7                     	;# 
   362  0DB8                     	;# 
   363  0DB9                     	;# 
   364  0DB9                     	;# 
   365  0DBA                     	;# 
   366  0DBB                     	;# 
   367  0DBC                     	;# 
   368  0DBC                     	;# 
   369  0DBD                     	;# 
   370  0DBD                     	;# 
   371  0DBE                     	;# 
   372  0DBF                     	;# 
   373  0DC0                     	;# 
   374  0FE4                     	;# 
   375  0FE5                     	;# 
   376  0FE6                     	;# 
   377  0FE7                     	;# 
   378  0FE8                     	;# 
   379  0FE8                     	;# 
   380  0FE9                     	;# 
   381  0FEA                     	;# 
   382  0FEA                     	;# 
   383  0FEB                     	;# 
   384  0FED                     	;# 
   385  0FEE                     	;# 
   386  0FEE                     	;# 
   387  0FEF                     	;# 
   388  0000                     	;# 
   389  0001                     	;# 
   390  0002                     	;# 
   391  0003                     	;# 
   392  0004                     	;# 
   393  0005                     	;# 
   394  0006                     	;# 
   395  0007                     	;# 
   396  0008                     	;# 
   397  0009                     	;# 
   398  000A                     	;# 
   399  000B                     	;# 
   400  000C                     	;# 
   401  0011                     	;# 
   402  0012                     	;# 
   403  0013                     	;# 
   404  0015                     	;# 
   405  0016                     	;# 
   406  0016                     	;# 
   407  0017                     	;# 
   408  0018                     	;# 
   409  0019                     	;# 
   410  001A                     	;# 
   411  001B                     	;# 
   412  001C                     	;# 
   413  008C                     	;# 
   414  0091                     	;# 
   415  0092                     	;# 
   416  0093                     	;# 
   417  0095                     	;# 
   418  0096                     	;# 
   419  0097                     	;# 
   420  0098                     	;# 
   421  0099                     	;# 
   422  009A                     	;# 
   423  009B                     	;# 
   424  009B                     	;# 
   425  009C                     	;# 
   426  009D                     	;# 
   427  009E                     	;# 
   428  009F                     	;# 
   429  010C                     	;# 
   430  0111                     	;# 
   431  0112                     	;# 
   432  0115                     	;# 
   433  0116                     	;# 
   434  0117                     	;# 
   435  0118                     	;# 
   436  0119                     	;# 
   437  011D                     	;# 
   438  011D                     	;# 
   439  018C                     	;# 
   440  0191                     	;# 
   441  0191                     	;# 
   442  0192                     	;# 
   443  0193                     	;# 
   444  0193                     	;# 
   445  0194                     	;# 
   446  0195                     	;# 
   447  0196                     	;# 
   448  0197                     	;# 
   449  0199                     	;# 
   450  019A                     	;# 
   451  019B                     	;# 
   452  019B                     	;# 
   453  019C                     	;# 
   454  019D                     	;# 
   455  019E                     	;# 
   456  019F                     	;# 
   457  020C                     	;# 
   458  028C                     	;# 
   459  030C                     	;# 
   460  038C                     	;# 
   461  0391                     	;# 
   462  0392                     	;# 
   463  0393                     	;# 
   464  0691                     	;# 
   465  0692                     	;# 
   466  0693                     	;# 
   467  0694                     	;# 
   468  0695                     	;# 
   469  0D8E                     	;# 
   470  0D8F                     	;# 
   471  0D90                     	;# 
   472  0D91                     	;# 
   473  0D91                     	;# 
   474  0D92                     	;# 
   475  0D93                     	;# 
   476  0D93                     	;# 
   477  0D94                     	;# 
   478  0D95                     	;# 
   479  0D95                     	;# 
   480  0D96                     	;# 
   481  0D97                     	;# 
   482  0D97                     	;# 
   483  0D98                     	;# 
   484  0D99                     	;# 
   485  0D99                     	;# 
   486  0D9A                     	;# 
   487  0D9B                     	;# 
   488  0D9C                     	;# 
   489  0D9C                     	;# 
   490  0D9D                     	;# 
   491  0D9D                     	;# 
   492  0D9E                     	;# 
   493  0D9F                     	;# 
   494  0DA0                     	;# 
   495  0DA1                     	;# 
   496  0DA1                     	;# 
   497  0DA2                     	;# 
   498  0DA3                     	;# 
   499  0DA3                     	;# 
   500  0DA4                     	;# 
   501  0DA5                     	;# 
   502  0DA5                     	;# 
   503  0DA6                     	;# 
   504  0DA7                     	;# 
   505  0DA7                     	;# 
   506  0DA8                     	;# 
   507  0DA9                     	;# 
   508  0DA9                     	;# 
   509  0DAA                     	;# 
   510  0DAB                     	;# 
   511  0DAC                     	;# 
   512  0DAC                     	;# 
   513  0DAD                     	;# 
   514  0DAD                     	;# 
   515  0DAE                     	;# 
   516  0DAF                     	;# 
   517  0DB0                     	;# 
   518  0DB1                     	;# 
   519  0DB1                     	;# 
   520  0DB2                     	;# 
   521  0DB3                     	;# 
   522  0DB3                     	;# 
   523  0DB4                     	;# 
   524  0DB5                     	;# 
   525  0DB5                     	;# 
   526  0DB6                     	;# 
   527  0DB7                     	;# 
   528  0DB7                     	;# 
   529  0DB8                     	;# 
   530  0DB9                     	;# 
   531  0DB9                     	;# 
   532  0DBA                     	;# 
   533  0DBB                     	;# 
   534  0DBC                     	;# 
   535  0DBC                     	;# 
   536  0DBD                     	;# 
   537  0DBD                     	;# 
   538  0DBE                     	;# 
   539  0DBF                     	;# 
   540  0DC0                     	;# 
   541  0FE4                     	;# 
   542  0FE5                     	;# 
   543  0FE6                     	;# 
   544  0FE7                     	;# 
   545  0FE8                     	;# 
   546  0FE8                     	;# 
   547  0FE9                     	;# 
   548  0FEA                     	;# 
   549  0FEA                     	;# 
   550  0FEB                     	;# 
   551  0FED                     	;# 
   552  0FEE                     	;# 
   553  0FEE                     	;# 
   554  0FEF                     	;# 
   555  0000                     	;# 
   556  0001                     	;# 
   557  0002                     	;# 
   558  0003                     	;# 
   559  0004                     	;# 
   560  0005                     	;# 
   561  0006                     	;# 
   562  0007                     	;# 
   563  0008                     	;# 
   564  0009                     	;# 
   565  000A                     	;# 
   566  000B                     	;# 
   567  000C                     	;# 
   568  0011                     	;# 
   569  0012                     	;# 
   570  0013                     	;# 
   571  0015                     	;# 
   572  0016                     	;# 
   573  0016                     	;# 
   574  0017                     	;# 
   575  0018                     	;# 
   576  0019                     	;# 
   577  001A                     	;# 
   578  001B                     	;# 
   579  001C                     	;# 
   580  008C                     	;# 
   581  0091                     	;# 
   582  0092                     	;# 
   583  0093                     	;# 
   584  0095                     	;# 
   585  0096                     	;# 
   586  0097                     	;# 
   587  0098                     	;# 
   588  0099                     	;# 
   589  009A                     	;# 
   590  009B                     	;# 
   591  009B                     	;# 
   592  009C                     	;# 
   593  009D                     	;# 
   594  009E                     	;# 
   595  009F                     	;# 
   596  010C                     	;# 
   597  0111                     	;# 
   598  0112                     	;# 
   599  0115                     	;# 
   600  0116                     	;# 
   601  0117                     	;# 
   602  0118                     	;# 
   603  0119                     	;# 
   604  011D                     	;# 
   605  011D                     	;# 
   606  018C                     	;# 
   607  0191                     	;# 
   608  0191                     	;# 
   609  0192                     	;# 
   610  0193                     	;# 
   611  0193                     	;# 
   612  0194                     	;# 
   613  0195                     	;# 
   614  0196                     	;# 
   615  0197                     	;# 
   616  0199                     	;# 
   617  019A                     	;# 
   618  019B                     	;# 
   619  019B                     	;# 
   620  019C                     	;# 
   621  019D                     	;# 
   622  019E                     	;# 
   623  019F                     	;# 
   624  020C                     	;# 
   625  028C                     	;# 
   626  030C                     	;# 
   627  038C                     	;# 
   628  0391                     	;# 
   629  0392                     	;# 
   630  0393                     	;# 
   631  0691                     	;# 
   632  0692                     	;# 
   633  0693                     	;# 
   634  0694                     	;# 
   635  0695                     	;# 
   636  0D8E                     	;# 
   637  0D8F                     	;# 
   638  0D90                     	;# 
   639  0D91                     	;# 
   640  0D91                     	;# 
   641  0D92                     	;# 
   642  0D93                     	;# 
   643  0D93                     	;# 
   644  0D94                     	;# 
   645  0D95                     	;# 
   646  0D95                     	;# 
   647  0D96                     	;# 
   648  0D97                     	;# 
   649  0D97                     	;# 
   650  0D98                     	;# 
   651  0D99                     	;# 
   652  0D99                     	;# 
   653  0D9A                     	;# 
   654  0D9B                     	;# 
   655  0D9C                     	;# 
   656  0D9C                     	;# 
   657  0D9D                     	;# 
   658  0D9D                     	;# 
   659  0D9E                     	;# 
   660  0D9F                     	;# 
   661  0DA0                     	;# 
   662  0DA1                     	;# 
   663  0DA1                     	;# 
   664  0DA2                     	;# 
   665  0DA3                     	;# 
   666  0DA3                     	;# 
   667  0DA4                     	;# 
   668  0DA5                     	;# 
   669  0DA5                     	;# 
   670  0DA6                     	;# 
   671  0DA7                     	;# 
   672  0DA7                     	;# 
   673  0DA8                     	;# 
   674  0DA9                     	;# 
   675  0DA9                     	;# 
   676  0DAA                     	;# 
   677  0DAB                     	;# 
   678  0DAC                     	;# 
   679  0DAC                     	;# 
   680  0DAD                     	;# 
   681  0DAD                     	;# 
   682  0DAE                     	;# 
   683  0DAF                     	;# 
   684  0DB0                     	;# 
   685  0DB1                     	;# 
   686  0DB1                     	;# 
   687  0DB2                     	;# 
   688  0DB3                     	;# 
   689  0DB3                     	;# 
   690  0DB4                     	;# 
   691  0DB5                     	;# 
   692  0DB5                     	;# 
   693  0DB6                     	;# 
   694  0DB7                     	;# 
   695  0DB7                     	;# 
   696  0DB8                     	;# 
   697  0DB9                     	;# 
   698  0DB9                     	;# 
   699  0DBA                     	;# 
   700  0DBB                     	;# 
   701  0DBC                     	;# 
   702  0DBC                     	;# 
   703  0DBD                     	;# 
   704  0DBD                     	;# 
   705  0DBE                     	;# 
   706  0DBF                     	;# 
   707  0DC0                     	;# 
   708  0FE4                     	;# 
   709  0FE5                     	;# 
   710  0FE6                     	;# 
   711  0FE7                     	;# 
   712  0FE8                     	;# 
   713  0FE8                     	;# 
   714  0FE9                     	;# 
   715  0FEA                     	;# 
   716  0FEA                     	;# 
   717  0FEB                     	;# 
   718  0FED                     	;# 
   719  0FEE                     	;# 
   720  0FEE                     	;# 
   721  0FEF                     	;# 
   722  0000                     	;# 
   723  0001                     	;# 
   724  0002                     	;# 
   725  0003                     	;# 
   726  0004                     	;# 
   727  0005                     	;# 
   728  0006                     	;# 
   729  0007                     	;# 
   730  0008                     	;# 
   731  0009                     	;# 
   732  000A                     	;# 
   733  000B                     	;# 
   734  000C                     	;# 
   735  0011                     	;# 
   736  0012                     	;# 
   737  0013                     	;# 
   738  0015                     	;# 
   739  0016                     	;# 
   740  0016                     	;# 
   741  0017                     	;# 
   742  0018                     	;# 
   743  0019                     	;# 
   744  001A                     	;# 
   745  001B                     	;# 
   746  001C                     	;# 
   747  008C                     	;# 
   748  0091                     	;# 
   749  0092                     	;# 
   750  0093                     	;# 
   751  0095                     	;# 
   752  0096                     	;# 
   753  0097                     	;# 
   754  0098                     	;# 
   755  0099                     	;# 
   756  009A                     	;# 
   757  009B                     	;# 
   758  009B                     	;# 
   759  009C                     	;# 
   760  009D                     	;# 
   761  009E                     	;# 
   762  009F                     	;# 
   763  010C                     	;# 
   764  0111                     	;# 
   765  0112                     	;# 
   766  0115                     	;# 
   767  0116                     	;# 
   768  0117                     	;# 
   769  0118                     	;# 
   770  0119                     	;# 
   771  011D                     	;# 
   772  011D                     	;# 
   773  018C                     	;# 
   774  0191                     	;# 
   775  0191                     	;# 
   776  0192                     	;# 
   777  0193                     	;# 
   778  0193                     	;# 
   779  0194                     	;# 
   780  0195                     	;# 
   781  0196                     	;# 
   782  0197                     	;# 
   783  0199                     	;# 
   784  019A                     	;# 
   785  019B                     	;# 
   786  019B                     	;# 
   787  019C                     	;# 
   788  019D                     	;# 
   789  019E                     	;# 
   790  019F                     	;# 
   791  020C                     	;# 
   792  028C                     	;# 
   793  030C                     	;# 
   794  038C                     	;# 
   795  0391                     	;# 
   796  0392                     	;# 
   797  0393                     	;# 
   798  0691                     	;# 
   799  0692                     	;# 
   800  0693                     	;# 
   801  0694                     	;# 
   802  0695                     	;# 
   803  0D8E                     	;# 
   804  0D8F                     	;# 
   805  0D90                     	;# 
   806  0D91                     	;# 
   807  0D91                     	;# 
   808  0D92                     	;# 
   809  0D93                     	;# 
   810  0D93                     	;# 
   811  0D94                     	;# 
   812  0D95                     	;# 
   813  0D95                     	;# 
   814  0D96                     	;# 
   815  0D97                     	;# 
   816  0D97                     	;# 
   817  0D98                     	;# 
   818  0D99                     	;# 
   819  0D99                     	;# 
   820  0D9A                     	;# 
   821  0D9B                     	;# 
   822  0D9C                     	;# 
   823  0D9C                     	;# 
   824  0D9D                     	;# 
   825  0D9D                     	;# 
   826  0D9E                     	;# 
   827  0D9F                     	;# 
   828  0DA0                     	;# 
   829  0DA1                     	;# 
   830  0DA1                     	;# 
   831  0DA2                     	;# 
   832  0DA3                     	;# 
   833  0DA3                     	;# 
   834  0DA4                     	;# 
   835  0DA5                     	;# 
   836  0DA5                     	;# 
   837  0DA6                     	;# 
   838  0DA7                     	;# 
   839  0DA7                     	;# 
   840  0DA8                     	;# 
   841  0DA9                     	;# 
   842  0DA9                     	;# 
   843  0DAA                     	;# 
   844  0DAB                     	;# 
   845  0DAC                     	;# 
   846  0DAC                     	;# 
   847  0DAD                     	;# 
   848  0DAD                     	;# 
   849  0DAE                     	;# 
   850  0DAF                     	;# 
   851  0DB0                     	;# 
   852  0DB1                     	;# 
   853  0DB1                     	;# 
   854  0DB2                     	;# 
   855  0DB3                     	;# 
   856  0DB3                     	;# 
   857  0DB4                     	;# 
   858  0DB5                     	;# 
   859  0DB5                     	;# 
   860  0DB6                     	;# 
   861  0DB7                     	;# 
   862  0DB7                     	;# 
   863  0DB8                     	;# 
   864  0DB9                     	;# 
   865  0DB9                     	;# 
   866  0DBA                     	;# 
   867  0DBB                     	;# 
   868  0DBC                     	;# 
   869  0DBC                     	;# 
   870  0DBD                     	;# 
   871  0DBD                     	;# 
   872  0DBE                     	;# 
   873  0DBF                     	;# 
   874  0DC0                     	;# 
   875  0FE4                     	;# 
   876  0FE5                     	;# 
   877  0FE6                     	;# 
   878  0FE7                     	;# 
   879  0FE8                     	;# 
   880  0FE8                     	;# 
   881  0FE9                     	;# 
   882  0FEA                     	;# 
   883  0FEA                     	;# 
   884  0FEB                     	;# 
   885  0FED                     	;# 
   886  0FEE                     	;# 
   887  0FEE                     	;# 
   888  0FEF                     	;# 
   889                           
   890                           	psect	nvCOMMON
   891  007A                     __pnvCOMMON:	
   892  007A                     _in_data:	
   893  007A                     	ds	1
   894  0011                     _PIR1bits	set	17
   895  0095                     _OPTION_REGbits	set	149
   896  008C                     _TRISA	set	140
   897  0097                     _WDTCON	set	151
   898  0098                     _OSCTUNE	set	152
   899  0099                     _OSCCON	set	153
   900  010C                     _LATAbits	set	268
   901  011D                     _APFCON	set	285
   902  010C                     _LATA	set	268
   903  019A                     _TXREG	set	410
   904  019D                     _RCSTAbits	set	413
   905  0199                     _RCREG	set	409
   906  019C                     _SPBRGH	set	412
   907  019B                     _SPBRGL	set	411
   908  019E                     _TXSTA	set	414
   909  019D                     _RCSTA	set	413
   910  019F                     _BAUDCON	set	415
   911  018C                     _ANSELA	set	396
   912  020C                     _WPUA	set	524
   913  028C                     _ODCONA	set	652
   914  0D9D                     _PWM1INTFbits	set	3485
   915  0D9F                     _PWM1LDCONbits	set	3487
   916  0D9B                     _PWM1CONbits	set	3483
   917  0D9B                     _PWM1CON	set	3483
   918  0D99                     _PWM1TMRL	set	3481
   919  0D9A                     _PWM1TMRH	set	3482
   920  0D97                     _PWM1OFL	set	3479
   921  0D98                     _PWM1OFH	set	3480
   922  0D95                     _PWM1PRL	set	3477
   923  0D96                     _PWM1PRH	set	3478
   924  0D93                     _PWM1DCL	set	3475
   925  0D94                     _PWM1DCH	set	3476
   926  0D91                     _PWM1PHL	set	3473
   927  0D92                     _PWM1PHH	set	3474
   928  0DA0                     _PWM1OFCON	set	3488
   929  0D9F                     _PWM1LDCON	set	3487
   930  0D9E                     _PWM1CLKCON	set	3486
   931  0D9D                     _PWM1INTF	set	3485
   932  0D9C                     _PWM1INTE	set	3484
   933                           
   934                           ; #config settings
   935  0000                     
   936                           	psect	cinit
   937  07F7                     start_initialization:	
   938  07F7                     __initialization:	
   939                           
   940                           ; Clear objects allocated to COMMON
   941  07F7  01F0               	clrf	__pbssCOMMON& (0+127)
   942  07F8  01F1               	clrf	(__pbssCOMMON+1)& (0+127)
   943  07F9  01F2               	clrf	(__pbssCOMMON+2)& (0+127)
   944  07FA  01F3               	clrf	(__pbssCOMMON+3)& (0+127)
   945  07FB  01F4               	clrf	(__pbssCOMMON+4)& (0+127)
   946  07FC  01F5               	clrf	(__pbssCOMMON+5)& (0+127)
   947  07FD  01F6               	clrf	(__pbssCOMMON+6)& (0+127)
   948  07FE                     end_of_initialization:	
   949                           ;End of C runtime variable initialization code
   950                           
   951  07FE                     __end_of__initialization:	
   952  07FE  0020               	movlb	0
   953  07FF  2F9C               	ljmp	_main	;jump to C main() function
   954                           
   955                           	psect	bssCOMMON
   956  0070                     __pbssCOMMON:	
   957  0070                     _read_buffer:	
   958  0070                     	ds	7
   959                           
   960                           	psect	cstackCOMMON
   961  0077                     __pcstackCOMMON:	
   962  0077                     ?_PIN_MANAGER_Initialize:	
   963  0077                     ??_PIN_MANAGER_Initialize:	
   964                           ; 1 bytes @ 0x0
   965                           
   966  0077                     ?_OSCILLATOR_Initialize:	
   967                           ; 1 bytes @ 0x0
   968                           
   969  0077                     ??_OSCILLATOR_Initialize:	
   970                           ; 1 bytes @ 0x0
   971                           
   972  0077                     ?_WDT_Initialize:	
   973                           ; 1 bytes @ 0x0
   974                           
   975  0077                     ??_WDT_Initialize:	
   976                           ; 1 bytes @ 0x0
   977                           
   978  0077                     ?_PWM1_Initialize:	
   979                           ; 1 bytes @ 0x0
   980                           
   981  0077                     ??_PWM1_Initialize:	
   982                           ; 1 bytes @ 0x0
   983                           
   984  0077                     ?_EUSART_Initialize:	
   985                           ; 1 bytes @ 0x0
   986                           
   987  0077                     ??_EUSART_Initialize:	
   988                           ; 1 bytes @ 0x0
   989                           
   990  0077                     ?_SYSTEM_Initialize:	
   991                           ; 1 bytes @ 0x0
   992                           
   993  0077                     ??_SYSTEM_Initialize:	
   994                           ; 1 bytes @ 0x0
   995                           
   996  0077                     ?_EUSART_Read:	
   997                           ; 1 bytes @ 0x0
   998                           
   999  0077                     ??_EUSART_Read:	
  1000                           ; 1 bytes @ 0x0
  1001                           
  1002  0077                     ?_PWM1_Start:	
  1003                           ; 1 bytes @ 0x0
  1004                           
  1005  0077                     ??_PWM1_Start:	
  1006                           ; 1 bytes @ 0x0
  1007                           
  1008  0077                     ?_PWM1_Stop:	
  1009                           ; 1 bytes @ 0x0
  1010                           
  1011  0077                     ??_PWM1_Stop:	
  1012                           ; 1 bytes @ 0x0
  1013                           
  1014  0077                     ?_main:	
  1015                           ; 1 bytes @ 0x0
  1016                           
  1017  0077                     ??_main:	
  1018                           ; 1 bytes @ 0x0
  1019                           
  1020                           
  1021                           ; 1 bytes @ 0x0
  1022  0077                     	ds	2
  1023  0079                     main@i:	
  1024                           
  1025                           ; 1 bytes @ 0x2
  1026  0079                     	ds	1
  1027                           
  1028                           	psect	maintext
  1029  079C                     __pmaintext:	
  1030 ;;
  1031 ;;Main: autosize = 0, tempsize = 2, incstack = 0, save=0
  1032 ;;
  1033 ;; *************** function _main *****************
  1034 ;; Defined at:
  1035 ;;		line 60 in file "main.c"
  1036 ;; Parameters:    Size  Location     Type
  1037 ;;		None
  1038 ;; Auto vars:     Size  Location     Type
  1039 ;;  i               1    2[COMMON] unsigned char 
  1040 ;; Return value:  Size  Location     Type
  1041 ;;                  1    wreg      void 
  1042 ;; Registers used:
  1043 ;;		wreg, fsr1l, fsr1h, status,2, status,0, pclath, cstack
  1044 ;; Tracked objects:
  1045 ;;		On entry : B1F/0
  1046 ;;		On exit  : 0/0
  1047 ;;		Unchanged: 0/0
  1048 ;; Data sizes:     COMMON   BANK0   BANK1   BANK2
  1049 ;;      Params:         0       0       0       0
  1050 ;;      Locals:         1       0       0       0
  1051 ;;      Temps:          2       0       0       0
  1052 ;;      Totals:         3       0       0       0
  1053 ;;Total ram usage:        3 bytes
  1054 ;; Hardware stack levels required when called:    2
  1055 ;; This function calls:
  1056 ;;		_EUSART_Read
  1057 ;;		_PWM1_Start
  1058 ;;		_PWM1_Stop
  1059 ;;		_SYSTEM_Initialize
  1060 ;; This function is called by:
  1061 ;;		Startup code after reset
  1062 ;; This function uses a non-reentrant model
  1063 ;;
  1064                           
  1065                           
  1066                           ;psect for function _main
  1067  079C                     _main:	
  1068                           
  1069                           ;main.c: 62:     uint8_t i;;main.c: 64:     SYSTEM_Initialize();
  1070                           
  1071                           ;incstack = 0
  1072                           ; Regs used in _main: [wreg+fsr1l+fsr1h+status,2+status,0+pclath+cstack]
  1073  079C  2752               	fcall	_SYSTEM_Initialize
  1074  079D  0022               	movlb	2	; select bank2
  1075  079E  160C               	bsf	12,4	;volatile
  1076  079F  110C               	bcf	12,2	;volatile
  1077  07A0                     l848:	
  1078                           
  1079                           ;main.c: 107:             in_data = EUSART_Read();
  1080  07A0  2763               	fcall	_EUSART_Read
  1081  07A1  00F7               	movwf	??_main
  1082  07A2  0877               	movf	??_main,w
  1083  07A3  00FA               	movwf	_in_data
  1084                           
  1085                           ;main.c: 108:         }while(in_data != 0x02);
  1086  07A4  3002               	movlw	2
  1087  07A5  067A               	xorwf	_in_data,w
  1088  07A6  1D03               	btfss	3,2
  1089  07A7  2FA0               	goto	l848
  1090                           
  1091                           ;main.c: 110:         i = 0;
  1092  07A8  01F9               	clrf	main@i
  1093  07A9  2FB2               	goto	l854
  1094  07AA                     l860:	
  1095  07AA  0879               	movf	main@i,w
  1096  07AB  3E6F               	addlw	(low ((_read_buffer| 0+255)))& (0+255)
  1097  07AC  0086               	movwf	6
  1098  07AD  0187               	clrf	7
  1099  07AE  3003               	movlw	3
  1100  07AF  0601               	xorwf	1,w
  1101  07B0  1903               	btfsc	3,2
  1102  07B1  2FC2               	goto	l862
  1103  07B2                     l854:	
  1104                           
  1105                           ;main.c: 112:             read_buffer[i] = EUSART_Read();
  1106  07B2  2763               	fcall	_EUSART_Read
  1107  07B3  00F7               	movwf	??_main
  1108  07B4  0879               	movf	main@i,w
  1109  07B5  3E70               	addlw	(low (_read_buffer| 0))& (0+255)
  1110  07B6  0086               	movwf	6
  1111  07B7  0187               	clrf	7
  1112  07B8  0877               	movf	??_main,w
  1113  07B9  0081               	movwf	1
  1114                           
  1115                           ;main.c: 113:             i++;
  1116  07BA  3001               	movlw	1
  1117  07BB  00F7               	movwf	??_main
  1118  07BC  0877               	movf	??_main,w
  1119  07BD  07F9               	addwf	main@i,f
  1120                           
  1121                           ;main.c: 114:         }while((i < 7) && (read_buffer[i-1] != 0x03));
  1122  07BE  3007               	movlw	7
  1123  07BF  0279               	subwf	main@i,w
  1124  07C0  1C03               	btfss	3,0
  1125  07C1  2FAA               	goto	l860
  1126  07C2                     l862:	
  1127                           
  1128                           ;main.c: 117:         if(read_buffer[0] == '0' && read_buffer[1] == '1' && read_buffer[2
      +                          ] == '2')
  1129  07C2  3030               	movlw	48
  1130  07C3  0670               	xorwf	_read_buffer,w
  1131  07C4  1D03               	btfss	3,2
  1132  07C5  2FE9               	goto	l882
  1133  07C6  3031               	movlw	49
  1134  07C7  0671               	xorwf	_read_buffer+1,w
  1135  07C8  1D03               	btfss	3,2
  1136  07C9  2FE9               	goto	l882
  1137  07CA  3032               	movlw	50
  1138  07CB  0672               	xorwf	_read_buffer+2,w
  1139  07CC  1D03               	btfss	3,2
  1140  07CD  2FE9               	goto	l882
  1141                           
  1142                           ;main.c: 118:         {;main.c: 119:             if(read_buffer[3] == '0')
  1143  07CE  3030               	movlw	48
  1144  07CF  0673               	xorwf	_read_buffer+3,w
  1145  07D0  1D03               	btfss	3,2
  1146  07D1  2FD4               	goto	l872
  1147                           
  1148                           ;main.c: 120:             {;main.c: 121:                PWM1_Start();
  1149  07D2  2743               	fcall	_PWM1_Start
  1150                           
  1151                           ;main.c: 122:             }
  1152  07D3  2FA0               	goto	l848
  1153  07D4                     l872:	
  1154  07D4  3031               	movlw	49
  1155  07D5  0673               	xorwf	_read_buffer+3,w
  1156  07D6  1D03               	btfss	3,2
  1157  07D7  2FA0               	goto	l848
  1158                           
  1159                           ;main.c: 124:             {;main.c: 125:                PWM1_Start();
  1160  07D8  2743               	fcall	_PWM1_Start
  1161  07D9  0022               	movlb	2	; select bank2
  1162  07DA  120C               	bcf	12,4	;volatile
  1163                           
  1164                           ;main.c: 127:                 _delay((unsigned long)((1000)*(8000000/4000.0)));
  1165  07DB  300B               	movlw	11
  1166  07DC  00F8               	movwf	??_main+1
  1167  07DD  3026               	movlw	38
  1168  07DE  00F7               	movwf	??_main
  1169  07DF  305E               	movlw	94
  1170  07E0                     u157:	
  1171  07E0  0B89               	decfsz	9,f
  1172  07E1  2FE0               	goto	u157
  1173  07E2  0BF7               	decfsz	??_main,f
  1174  07E3  2FE0               	goto	u157
  1175  07E4  0BF8               	decfsz	??_main+1,f
  1176  07E5  2FE0               	goto	u157
  1177  07E6  0022               	movlb	2	; select bank2
  1178  07E7  160C               	bsf	12,4	;volatile
  1179  07E8  2FA0               	goto	l848
  1180  07E9                     l882:	
  1181  07E9  3030               	movlw	48
  1182  07EA  0670               	xorwf	_read_buffer,w
  1183  07EB  1D03               	btfss	3,2
  1184  07EC  2FA0               	goto	l848
  1185  07ED  3031               	movlw	49
  1186  07EE  0671               	xorwf	_read_buffer+1,w
  1187  07EF  1D03               	btfss	3,2
  1188  07F0  2FA0               	goto	l848
  1189  07F1  3031               	movlw	49
  1190  07F2  0672               	xorwf	_read_buffer+2,w
  1191  07F3  1D03               	btfss	3,2
  1192  07F4  2FA0               	goto	l848
  1193                           
  1194                           ;main.c: 132:         {;main.c: 133:             PWM1_Stop();
  1195  07F5  2746               	fcall	_PWM1_Stop
  1196  07F6  2FA0               	goto	l848
  1197  07F7                     __end_of_main:	
  1198                           
  1199                           	psect	text1
  1200  0752                     __ptext1:	
  1201 ;; *************** function _SYSTEM_Initialize *****************
  1202 ;; Defined at:
  1203 ;;		line 67 in file "mcc_generated_files/mcc.c"
  1204 ;; Parameters:    Size  Location     Type
  1205 ;;		None
  1206 ;; Auto vars:     Size  Location     Type
  1207 ;;		None
  1208 ;; Return value:  Size  Location     Type
  1209 ;;                  1    wreg      void 
  1210 ;; Registers used:
  1211 ;;		wreg, status,2, status,0, pclath, cstack
  1212 ;; Tracked objects:
  1213 ;;		On entry : 0/0
  1214 ;;		On exit  : 0/0
  1215 ;;		Unchanged: 0/0
  1216 ;; Data sizes:     COMMON   BANK0   BANK1   BANK2
  1217 ;;      Params:         0       0       0       0
  1218 ;;      Locals:         0       0       0       0
  1219 ;;      Temps:          0       0       0       0
  1220 ;;      Totals:         0       0       0       0
  1221 ;;Total ram usage:        0 bytes
  1222 ;; Hardware stack levels used:    1
  1223 ;; Hardware stack levels required when called:    1
  1224 ;; This function calls:
  1225 ;;		_EUSART_Initialize
  1226 ;;		_OSCILLATOR_Initialize
  1227 ;;		_PIN_MANAGER_Initialize
  1228 ;;		_PWM1_Initialize
  1229 ;;		_WDT_Initialize
  1230 ;; This function is called by:
  1231 ;;		_main
  1232 ;; This function uses a non-reentrant model
  1233 ;;
  1234                           
  1235                           
  1236                           ;psect for function _SYSTEM_Initialize
  1237  0752                     _SYSTEM_Initialize:	
  1238                           
  1239                           ;mcc_generated_files/mcc.c: 70:     PIN_MANAGER_Initialize();
  1240                           
  1241                           ;incstack = 0
  1242                           ; Regs used in _SYSTEM_Initialize: [wreg+status,2+status,0+pclath+cstack]
  1243  0752  2770               	fcall	_PIN_MANAGER_Initialize
  1244                           
  1245                           ;mcc_generated_files/mcc.c: 71:     OSCILLATOR_Initialize();
  1246  0753  274D               	fcall	_OSCILLATOR_Initialize
  1247                           
  1248                           ;mcc_generated_files/mcc.c: 72:     WDT_Initialize();
  1249  0754  2749               	fcall	_WDT_Initialize
  1250                           
  1251                           ;mcc_generated_files/mcc.c: 73:     PWM1_Initialize();
  1252  0755  2782               	fcall	_PWM1_Initialize
  1253                           
  1254                           ;mcc_generated_files/mcc.c: 74:     EUSART_Initialize();
  1255  0756  2758               	fcall	_EUSART_Initialize
  1256  0757  0008               	return
  1257  0758                     __end_of_SYSTEM_Initialize:	
  1258                           
  1259                           	psect	text2
  1260  0749                     __ptext2:	
  1261 ;; *************** function _WDT_Initialize *****************
  1262 ;; Defined at:
  1263 ;;		line 85 in file "mcc_generated_files/mcc.c"
  1264 ;; Parameters:    Size  Location     Type
  1265 ;;		None
  1266 ;; Auto vars:     Size  Location     Type
  1267 ;;		None
  1268 ;; Return value:  Size  Location     Type
  1269 ;;                  1    wreg      void 
  1270 ;; Registers used:
  1271 ;;		wreg
  1272 ;; Tracked objects:
  1273 ;;		On entry : 0/0
  1274 ;;		On exit  : 0/0
  1275 ;;		Unchanged: 0/0
  1276 ;; Data sizes:     COMMON   BANK0   BANK1   BANK2
  1277 ;;      Params:         0       0       0       0
  1278 ;;      Locals:         0       0       0       0
  1279 ;;      Temps:          0       0       0       0
  1280 ;;      Totals:         0       0       0       0
  1281 ;;Total ram usage:        0 bytes
  1282 ;; Hardware stack levels used:    1
  1283 ;; This function calls:
  1284 ;;		Nothing
  1285 ;; This function is called by:
  1286 ;;		_SYSTEM_Initialize
  1287 ;; This function uses a non-reentrant model
  1288 ;;
  1289                           
  1290                           
  1291                           ;psect for function _WDT_Initialize
  1292  0749                     _WDT_Initialize:	
  1293                           
  1294                           ;mcc_generated_files/mcc.c: 88:     WDTCON = 0x16;
  1295                           
  1296                           ;incstack = 0
  1297                           ; Regs used in _WDT_Initialize: [wreg]
  1298  0749  3016               	movlw	22
  1299  074A  0021               	movlb	1	; select bank1
  1300  074B  0097               	movwf	23	;volatile
  1301  074C  0008               	return
  1302  074D                     __end_of_WDT_Initialize:	
  1303                           
  1304                           	psect	text3
  1305  0782                     __ptext3:	
  1306 ;; *************** function _PWM1_Initialize *****************
  1307 ;; Defined at:
  1308 ;;		line 58 in file "mcc_generated_files/pwm1.c"
  1309 ;; Parameters:    Size  Location     Type
  1310 ;;		None
  1311 ;; Auto vars:     Size  Location     Type
  1312 ;;		None
  1313 ;; Return value:  Size  Location     Type
  1314 ;;                  1    wreg      void 
  1315 ;; Registers used:
  1316 ;;		wreg, status,2
  1317 ;; Tracked objects:
  1318 ;;		On entry : 0/0
  1319 ;;		On exit  : 0/0
  1320 ;;		Unchanged: 0/0
  1321 ;; Data sizes:     COMMON   BANK0   BANK1   BANK2
  1322 ;;      Params:         0       0       0       0
  1323 ;;      Locals:         0       0       0       0
  1324 ;;      Temps:          0       0       0       0
  1325 ;;      Totals:         0       0       0       0
  1326 ;;Total ram usage:        0 bytes
  1327 ;; Hardware stack levels used:    1
  1328 ;; This function calls:
  1329 ;;		Nothing
  1330 ;; This function is called by:
  1331 ;;		_SYSTEM_Initialize
  1332 ;; This function uses a non-reentrant model
  1333 ;;
  1334                           
  1335                           
  1336                           ;psect for function _PWM1_Initialize
  1337  0782                     _PWM1_Initialize:	
  1338                           
  1339                           ;mcc_generated_files/pwm1.c: 63:     PWM1INTE = 0x00;
  1340                           
  1341                           ;incstack = 0
  1342                           ; Regs used in _PWM1_Initialize: [wreg+status,2]
  1343  0782  003B               	movlb	27	; select bank27
  1344  0783  019C               	clrf	28	;volatile
  1345                           
  1346                           ;mcc_generated_files/pwm1.c: 66:     PWM1INTF = 0x00;
  1347  0784  019D               	clrf	29	;volatile
  1348                           
  1349                           ;mcc_generated_files/pwm1.c: 69:     PWM1CLKCON = 0x71;
  1350  0785  3071               	movlw	113
  1351  0786  009E               	movwf	30	;volatile
  1352                           
  1353                           ;mcc_generated_files/pwm1.c: 72:     PWM1LDCON = 0x00;
  1354  0787  019F               	clrf	31	;volatile
  1355                           
  1356                           ;mcc_generated_files/pwm1.c: 75:     PWM1OFCON = 0x00;
  1357  0788  01A0               	clrf	32	;volatile
  1358                           
  1359                           ;mcc_generated_files/pwm1.c: 78:     PWM1PHH = 0x00;
  1360  0789  0192               	clrf	18	;volatile
  1361                           
  1362                           ;mcc_generated_files/pwm1.c: 81:     PWM1PHL = 0x00;
  1363  078A  0191               	clrf	17	;volatile
  1364                           
  1365                           ;mcc_generated_files/pwm1.c: 84:     PWM1DCH = 0x7A;
  1366  078B  307A               	movlw	122
  1367  078C  0094               	movwf	20	;volatile
  1368                           
  1369                           ;mcc_generated_files/pwm1.c: 87:     PWM1DCL = 0x12;
  1370  078D  3012               	movlw	18
  1371  078E  0093               	movwf	19	;volatile
  1372                           
  1373                           ;mcc_generated_files/pwm1.c: 90:     PWM1PRH = 0xF4;
  1374  078F  30F4               	movlw	244
  1375  0790  0096               	movwf	22	;volatile
  1376                           
  1377                           ;mcc_generated_files/pwm1.c: 93:     PWM1PRL = 0x23;
  1378  0791  3023               	movlw	35
  1379  0792  0095               	movwf	21	;volatile
  1380                           
  1381                           ;mcc_generated_files/pwm1.c: 96:     PWM1OFH = 0xF4;
  1382  0793  30F4               	movlw	244
  1383  0794  0098               	movwf	24	;volatile
  1384                           
  1385                           ;mcc_generated_files/pwm1.c: 99:     PWM1OFL = 0x23;
  1386  0795  3023               	movlw	35
  1387  0796  0097               	movwf	23	;volatile
  1388                           
  1389                           ;mcc_generated_files/pwm1.c: 102:     PWM1TMRH = 0x00;
  1390  0797  019A               	clrf	26	;volatile
  1391                           
  1392                           ;mcc_generated_files/pwm1.c: 105:     PWM1TMRL = 0x00;
  1393  0798  0199               	clrf	25	;volatile
  1394                           
  1395                           ;mcc_generated_files/pwm1.c: 108:     PWM1CON = 0x50;
  1396  0799  3050               	movlw	80
  1397  079A  009B               	movwf	27	;volatile
  1398  079B  0008               	return
  1399  079C                     __end_of_PWM1_Initialize:	
  1400                           
  1401                           	psect	text4
  1402  0770                     __ptext4:	
  1403 ;; *************** function _PIN_MANAGER_Initialize *****************
  1404 ;; Defined at:
  1405 ;;		line 52 in file "mcc_generated_files/pin_manager.c"
  1406 ;; Parameters:    Size  Location     Type
  1407 ;;		None
  1408 ;; Auto vars:     Size  Location     Type
  1409 ;;		None
  1410 ;; Return value:  Size  Location     Type
  1411 ;;                  1    wreg      void 
  1412 ;; Registers used:
  1413 ;;		wreg, status,2
  1414 ;; Tracked objects:
  1415 ;;		On entry : 0/0
  1416 ;;		On exit  : 0/0
  1417 ;;		Unchanged: 0/0
  1418 ;; Data sizes:     COMMON   BANK0   BANK1   BANK2
  1419 ;;      Params:         0       0       0       0
  1420 ;;      Locals:         0       0       0       0
  1421 ;;      Temps:          0       0       0       0
  1422 ;;      Totals:         0       0       0       0
  1423 ;;Total ram usage:        0 bytes
  1424 ;; Hardware stack levels used:    1
  1425 ;; This function calls:
  1426 ;;		Nothing
  1427 ;; This function is called by:
  1428 ;;		_SYSTEM_Initialize
  1429 ;; This function uses a non-reentrant model
  1430 ;;
  1431                           
  1432                           
  1433                           ;psect for function _PIN_MANAGER_Initialize
  1434  0770                     _PIN_MANAGER_Initialize:	
  1435                           
  1436                           ;mcc_generated_files/pin_manager.c: 57:     LATA = 0x30;
  1437                           
  1438                           ;incstack = 0
  1439                           ; Regs used in _PIN_MANAGER_Initialize: [wreg+status,2]
  1440  0770  3030               	movlw	48
  1441  0771  0022               	movlb	2	; select bank2
  1442  0772  008C               	movwf	12	;volatile
  1443                           
  1444                           ;mcc_generated_files/pin_manager.c: 62:     TRISA = 0x02;
  1445  0773  3002               	movlw	2
  1446  0774  0021               	movlb	1	; select bank1
  1447  0775  008C               	movwf	12	;volatile
  1448                           
  1449                           ;mcc_generated_files/pin_manager.c: 67:     ANSELA = 0x00;
  1450  0776  0023               	movlb	3	; select bank3
  1451  0777  018C               	clrf	12	;volatile
  1452                           
  1453                           ;mcc_generated_files/pin_manager.c: 72:     WPUA = 0x00;
  1454  0778  0024               	movlb	4	; select bank4
  1455  0779  018C               	clrf	12	;volatile
  1456                           
  1457                           ;mcc_generated_files/pin_manager.c: 73:     OPTION_REGbits.nWPUEN = 0;
  1458  077A  0021               	movlb	1	; select bank1
  1459  077B  1395               	bcf	21,7	;volatile
  1460                           
  1461                           ;mcc_generated_files/pin_manager.c: 78:     ODCONA = 0x00;
  1462  077C  0025               	movlb	5	; select bank5
  1463  077D  018C               	clrf	12	;volatile
  1464                           
  1465                           ;mcc_generated_files/pin_manager.c: 83:     APFCON = 0x01;
  1466  077E  3001               	movlw	1
  1467  077F  0022               	movlb	2	; select bank2
  1468  0780  009D               	movwf	29	;volatile
  1469  0781  0008               	return
  1470  0782                     __end_of_PIN_MANAGER_Initialize:	
  1471                           
  1472                           	psect	text5
  1473  074D                     __ptext5:	
  1474 ;; *************** function _OSCILLATOR_Initialize *****************
  1475 ;; Defined at:
  1476 ;;		line 77 in file "mcc_generated_files/mcc.c"
  1477 ;; Parameters:    Size  Location     Type
  1478 ;;		None
  1479 ;; Auto vars:     Size  Location     Type
  1480 ;;		None
  1481 ;; Return value:  Size  Location     Type
  1482 ;;                  1    wreg      void 
  1483 ;; Registers used:
  1484 ;;		wreg, status,2
  1485 ;; Tracked objects:
  1486 ;;		On entry : 0/0
  1487 ;;		On exit  : 0/0
  1488 ;;		Unchanged: 0/0
  1489 ;; Data sizes:     COMMON   BANK0   BANK1   BANK2
  1490 ;;      Params:         0       0       0       0
  1491 ;;      Locals:         0       0       0       0
  1492 ;;      Temps:          0       0       0       0
  1493 ;;      Totals:         0       0       0       0
  1494 ;;Total ram usage:        0 bytes
  1495 ;; Hardware stack levels used:    1
  1496 ;; This function calls:
  1497 ;;		Nothing
  1498 ;; This function is called by:
  1499 ;;		_SYSTEM_Initialize
  1500 ;; This function uses a non-reentrant model
  1501 ;;
  1502                           
  1503                           
  1504                           ;psect for function _OSCILLATOR_Initialize
  1505  074D                     _OSCILLATOR_Initialize:	
  1506                           
  1507                           ;mcc_generated_files/mcc.c: 80:     OSCCON = 0x72;
  1508                           
  1509                           ;incstack = 0
  1510                           ; Regs used in _OSCILLATOR_Initialize: [wreg+status,2]
  1511  074D  3072               	movlw	114
  1512  074E  0021               	movlb	1	; select bank1
  1513  074F  0099               	movwf	25	;volatile
  1514                           
  1515                           ;mcc_generated_files/mcc.c: 82:     OSCTUNE = 0x00;
  1516  0750  0198               	clrf	24	;volatile
  1517  0751  0008               	return
  1518  0752                     __end_of_OSCILLATOR_Initialize:	
  1519                           
  1520                           	psect	text6
  1521  0758                     __ptext6:	
  1522 ;; *************** function _EUSART_Initialize *****************
  1523 ;; Defined at:
  1524 ;;		line 55 in file "mcc_generated_files/eusart.c"
  1525 ;; Parameters:    Size  Location     Type
  1526 ;;		None
  1527 ;; Auto vars:     Size  Location     Type
  1528 ;;		None
  1529 ;; Return value:  Size  Location     Type
  1530 ;;                  1    wreg      void 
  1531 ;; Registers used:
  1532 ;;		wreg, status,2
  1533 ;; Tracked objects:
  1534 ;;		On entry : 0/0
  1535 ;;		On exit  : 0/0
  1536 ;;		Unchanged: 0/0
  1537 ;; Data sizes:     COMMON   BANK0   BANK1   BANK2
  1538 ;;      Params:         0       0       0       0
  1539 ;;      Locals:         0       0       0       0
  1540 ;;      Temps:          0       0       0       0
  1541 ;;      Totals:         0       0       0       0
  1542 ;;Total ram usage:        0 bytes
  1543 ;; Hardware stack levels used:    1
  1544 ;; This function calls:
  1545 ;;		Nothing
  1546 ;; This function is called by:
  1547 ;;		_SYSTEM_Initialize
  1548 ;; This function uses a non-reentrant model
  1549 ;;
  1550                           
  1551                           
  1552                           ;psect for function _EUSART_Initialize
  1553  0758                     _EUSART_Initialize:	
  1554                           
  1555                           ;mcc_generated_files/eusart.c: 60:     BAUDCON = 0x08;
  1556                           
  1557                           ;incstack = 0
  1558                           ; Regs used in _EUSART_Initialize: [wreg+status,2]
  1559  0758  3008               	movlw	8
  1560  0759  0023               	movlb	3	; select bank3
  1561  075A  009F               	movwf	31	;volatile
  1562                           
  1563                           ;mcc_generated_files/eusart.c: 63:     RCSTA = 0x90;
  1564  075B  3090               	movlw	144
  1565  075C  009D               	movwf	29	;volatile
  1566                           
  1567                           ;mcc_generated_files/eusart.c: 66:     TXSTA = 0x24;
  1568  075D  3024               	movlw	36
  1569  075E  009E               	movwf	30	;volatile
  1570                           
  1571                           ;mcc_generated_files/eusart.c: 69:     SPBRGL = 0x67;
  1572  075F  3067               	movlw	103
  1573  0760  009B               	movwf	27	;volatile
  1574                           
  1575                           ;mcc_generated_files/eusart.c: 72:     SPBRGH = 0x00;
  1576  0761  019C               	clrf	28	;volatile
  1577  0762  0008               	return
  1578  0763                     __end_of_EUSART_Initialize:	
  1579                           
  1580                           	psect	text7
  1581  0746                     __ptext7:	
  1582 ;; *************** function _PWM1_Stop *****************
  1583 ;; Defined at:
  1584 ;;		line 117 in file "mcc_generated_files/pwm1.c"
  1585 ;; Parameters:    Size  Location     Type
  1586 ;;		None
  1587 ;; Auto vars:     Size  Location     Type
  1588 ;;		None
  1589 ;; Return value:  Size  Location     Type
  1590 ;;                  1    wreg      void 
  1591 ;; Registers used:
  1592 ;;		None
  1593 ;; Tracked objects:
  1594 ;;		On entry : 0/0
  1595 ;;		On exit  : 0/0
  1596 ;;		Unchanged: 0/0
  1597 ;; Data sizes:     COMMON   BANK0   BANK1   BANK2
  1598 ;;      Params:         0       0       0       0
  1599 ;;      Locals:         0       0       0       0
  1600 ;;      Temps:          0       0       0       0
  1601 ;;      Totals:         0       0       0       0
  1602 ;;Total ram usage:        0 bytes
  1603 ;; Hardware stack levels used:    1
  1604 ;; This function calls:
  1605 ;;		Nothing
  1606 ;; This function is called by:
  1607 ;;		_main
  1608 ;; This function uses a non-reentrant model
  1609 ;;
  1610                           
  1611                           
  1612                           ;psect for function _PWM1_Stop
  1613  0746                     _PWM1_Stop:	
  1614                           
  1615                           ;mcc_generated_files/pwm1.c: 119:     PWM1CONbits.EN = 0;
  1616                           
  1617                           ;incstack = 0
  1618                           ; Regs used in _PWM1_Stop: []
  1619  0746  003B               	movlb	27	; select bank27
  1620  0747  139B               	bcf	27,7	;volatile
  1621  0748  0008               	return
  1622  0749                     __end_of_PWM1_Stop:	
  1623                           
  1624                           	psect	text8
  1625  0743                     __ptext8:	
  1626 ;; *************** function _PWM1_Start *****************
  1627 ;; Defined at:
  1628 ;;		line 112 in file "mcc_generated_files/pwm1.c"
  1629 ;; Parameters:    Size  Location     Type
  1630 ;;		None
  1631 ;; Auto vars:     Size  Location     Type
  1632 ;;		None
  1633 ;; Return value:  Size  Location     Type
  1634 ;;                  1    wreg      void 
  1635 ;; Registers used:
  1636 ;;		None
  1637 ;; Tracked objects:
  1638 ;;		On entry : 0/0
  1639 ;;		On exit  : 0/0
  1640 ;;		Unchanged: 0/0
  1641 ;; Data sizes:     COMMON   BANK0   BANK1   BANK2
  1642 ;;      Params:         0       0       0       0
  1643 ;;      Locals:         0       0       0       0
  1644 ;;      Temps:          0       0       0       0
  1645 ;;      Totals:         0       0       0       0
  1646 ;;Total ram usage:        0 bytes
  1647 ;; Hardware stack levels used:    1
  1648 ;; This function calls:
  1649 ;;		Nothing
  1650 ;; This function is called by:
  1651 ;;		_main
  1652 ;; This function uses a non-reentrant model
  1653 ;;
  1654                           
  1655                           
  1656                           ;psect for function _PWM1_Start
  1657  0743                     _PWM1_Start:	
  1658                           
  1659                           ;mcc_generated_files/pwm1.c: 114:     PWM1CONbits.EN = 1;
  1660                           
  1661                           ;incstack = 0
  1662                           ; Regs used in _PWM1_Start: []
  1663  0743  003B               	movlb	27	; select bank27
  1664  0744  179B               	bsf	27,7	;volatile
  1665  0745  0008               	return
  1666  0746                     __end_of_PWM1_Start:	
  1667                           
  1668                           	psect	text9
  1669  0763                     __ptext9:	
  1670 ;; *************** function _EUSART_Read *****************
  1671 ;; Defined at:
  1672 ;;		line 77 in file "mcc_generated_files/eusart.c"
  1673 ;; Parameters:    Size  Location     Type
  1674 ;;		None
  1675 ;; Auto vars:     Size  Location     Type
  1676 ;;		None
  1677 ;; Return value:  Size  Location     Type
  1678 ;;                  1    wreg      unsigned char 
  1679 ;; Registers used:
  1680 ;;		wreg, status,2
  1681 ;; Tracked objects:
  1682 ;;		On entry : 0/0
  1683 ;;		On exit  : 0/0
  1684 ;;		Unchanged: 0/0
  1685 ;; Data sizes:     COMMON   BANK0   BANK1   BANK2
  1686 ;;      Params:         0       0       0       0
  1687 ;;      Locals:         0       0       0       0
  1688 ;;      Temps:          0       0       0       0
  1689 ;;      Totals:         0       0       0       0
  1690 ;;Total ram usage:        0 bytes
  1691 ;; Hardware stack levels used:    1
  1692 ;; This function calls:
  1693 ;;		Nothing
  1694 ;; This function is called by:
  1695 ;;		_main
  1696 ;; This function uses a non-reentrant model
  1697 ;;
  1698                           
  1699                           
  1700                           ;psect for function _EUSART_Read
  1701  0763                     _EUSART_Read:	
  1702                           
  1703                           ;mcc_generated_files/eusart.c: 79:     RCREG = 0x00;
  1704                           
  1705                           ;incstack = 0
  1706                           ; Regs used in _EUSART_Read: [wreg+status,2]
  1707  0763  0023               	movlb	3	; select bank3
  1708  0764  0199               	clrf	25	;volatile
  1709                           
  1710                           ;mcc_generated_files/eusart.c: 80:     PIR1bits.RCIF = 0;
  1711  0765  0020               	movlb	0	; select bank0
  1712  0766  1291               	bcf	17,5	;volatile
  1713  0767                     l69:	
  1714                           ;mcc_generated_files/eusart.c: 83:     {;mcc_generated_files/eusart.c: 84:     }
  1715                           
  1716                           
  1717                           ;mcc_generated_files/eusart.c: 82:     while(!PIR1bits.RCIF)
  1718  0767  1E91               	btfss	17,5	;volatile
  1719  0768  2F67               	goto	l69
  1720                           
  1721                           ;mcc_generated_files/eusart.c: 87:     if(1 == RCSTAbits.OERR)
  1722  0769  0023               	movlb	3	; select bank3
  1723  076A  1C9D               	btfss	29,1	;volatile
  1724  076B  2F6E               	goto	l788
  1725                           
  1726                           ;mcc_generated_files/eusart.c: 88:     {;mcc_generated_files/eusart.c: 91:         RCSTA
      +                          bits.SPEN = 0;
  1727  076C  139D               	bcf	29,7	;volatile
  1728                           
  1729                           ;mcc_generated_files/eusart.c: 92:         RCSTAbits.SPEN = 1;
  1730  076D  179D               	bsf	29,7	;volatile
  1731  076E                     l788:	
  1732                           
  1733                           ;mcc_generated_files/eusart.c: 95:     return RCREG;
  1734  076E  0819               	movf	25,w	;volatile
  1735  076F  0008               	return
  1736  0770                     __end_of_EUSART_Read:	
  1737  007E                     btemp	set	126	;btemp
  1738  007E                     wtemp0	set	126


Data Sizes:
    Strings     0
    Constant    0
    Data        0
    BSS         7
    Persistent  33
    Stack       0

Auto Spaces:
    Space          Size  Autos    Used
    COMMON           14      3      11
    BANK0            80      0       0
    BANK1            80      0       0
    BANK2            80      0       0

Pointer List with Targets:

    None.

Critical Paths under _main in COMMON

    None.

Critical Paths under _main in BANK0

    None.

Critical Paths under _main in BANK1

    None.

Critical Paths under _main in BANK2

    None.

Call Graph Tables:

 ---------------------------------------------------------------------------------
 (Depth) Function   	        Calls       Base Space   Used Autos Params    Refs
 ---------------------------------------------------------------------------------
 (0) _main                                                 3     3      0      45
                                              0 COMMON     3     3      0
                        _EUSART_Read
                         _PWM1_Start
                          _PWM1_Stop
                  _SYSTEM_Initialize
 ---------------------------------------------------------------------------------
 (1) _SYSTEM_Initialize                                    0     0      0       0
                  _EUSART_Initialize
              _OSCILLATOR_Initialize
             _PIN_MANAGER_Initialize
                    _PWM1_Initialize
                     _WDT_Initialize
 ---------------------------------------------------------------------------------
 (2) _WDT_Initialize                                       0     0      0       0
 ---------------------------------------------------------------------------------
 (2) _PWM1_Initialize                                      0     0      0       0
 ---------------------------------------------------------------------------------
 (2) _PIN_MANAGER_Initialize                               0     0      0       0
 ---------------------------------------------------------------------------------
 (2) _OSCILLATOR_Initialize                                0     0      0       0
 ---------------------------------------------------------------------------------
 (2) _EUSART_Initialize                                    0     0      0       0
 ---------------------------------------------------------------------------------
 (1) _PWM1_Stop                                            0     0      0       0
 ---------------------------------------------------------------------------------
 (1) _PWM1_Start                                           0     0      0       0
 ---------------------------------------------------------------------------------
 (1) _EUSART_Read                                          0     0      0       0
 ---------------------------------------------------------------------------------
 Estimated maximum stack depth 2
 ---------------------------------------------------------------------------------

 Call Graph Graphs:

 _main (ROOT)
   _EUSART_Read
   _PWM1_Start
   _PWM1_Stop
   _SYSTEM_Initialize
     _EUSART_Initialize
     _OSCILLATOR_Initialize
     _PIN_MANAGER_Initialize
     _PWM1_Initialize
     _WDT_Initialize

 Address spaces:
Name               Size   Autos  Total    Cost      Usage
BIGRAM              F0      0       0       0        0.0%
NULL                 0      0       0       0        0.0%
CODE                 0      0       0       0        0.0%
BITCOMMON            E      0       0       1        0.0%
BITSFR0              0      0       0       1        0.0%
SFR0                 0      0       0       1        0.0%
COMMON               E      3       B       2       78.6%
BITSFR1              0      0       0       2        0.0%
SFR1                 0      0       0       2        0.0%
BITSFR2              0      0       0       3        0.0%
SFR2                 0      0       0       3        0.0%
STACK                0      0       0       3        0.0%
BITSFR3              0      0       0       4        0.0%
SFR3                 0      0       0       4        0.0%
ABS                  0      0       B       4        0.0%
BITBANK0            50      0       0       5        0.0%
BITSFR4              0      0       0       5        0.0%
SFR4                 0      0       0       5        0.0%
BANK0               50      0       0       6        0.0%
BITSFR5              0      0       0       6        0.0%
SFR5                 0      0       0       6        0.0%
BITBANK1            50      0       0       7        0.0%
BITSFR6              0      0       0       7        0.0%
SFR6                 0      0       0       7        0.0%
BANK1               50      0       0       8        0.0%
BITSFR7              0      0       0       8        0.0%
SFR7                 0      0       0       8        0.0%
BITBANK2            50      0       0       9        0.0%
BITSFR8              0      0       0       9        0.0%
SFR8                 0      0       0       9        0.0%
BANK2               50      0       0      10        0.0%
BITSFR9              0      0       0      10        0.0%
SFR9                 0      0       0      10        0.0%
BITSFR10             0      0       0      11        0.0%
SFR10                0      0       0      11        0.0%
DATA                 0      0       B      11        0.0%
BITSFR11             0      0       0      12        0.0%
SFR11                0      0       0      12        0.0%
BITSFR12             0      0       0      13        0.0%
SFR12                0      0       0      13        0.0%
BITSFR13             0      0       0      14        0.0%
SFR13                0      0       0      14        0.0%
BITSFR14             0      0       0      15        0.0%
SFR14                0      0       0      15        0.0%
BITSFR15             0      0       0      16        0.0%
SFR15                0      0       0      16        0.0%
BITSFR16             0      0       0      17        0.0%
SFR16                0      0       0      17        0.0%
BITSFR17             0      0       0      18        0.0%
SFR17                0      0       0      18        0.0%
BITSFR18             0      0       0      19        0.0%
SFR18                0      0       0      19        0.0%
BITSFR19             0      0       0      20        0.0%
SFR19                0      0       0      20        0.0%
BITSFR20             0      0       0      21        0.0%
SFR20                0      0       0      21        0.0%
BITSFR21             0      0       0      22        0.0%
SFR21                0      0       0      22        0.0%
BITSFR22             0      0       0      23        0.0%
SFR22                0      0       0      23        0.0%
BITSFR23             0      0       0      24        0.0%
SFR23                0      0       0      24        0.0%
BITSFR24             0      0       0      25        0.0%
SFR24                0      0       0      25        0.0%
BITSFR25             0      0       0      26        0.0%
SFR25                0      0       0      26        0.0%
BITSFR26             0      0       0      27        0.0%
SFR26                0      0       0      27        0.0%
BITSFR27             0      0       0      28        0.0%
SFR27                0      0       0      28        0.0%
BITSFR28             0      0       0      29        0.0%
SFR28                0      0       0      29        0.0%
BITSFR29             0      0       0      30        0.0%
SFR29                0      0       0      30        0.0%
BITSFR30             0      0       0      31        0.0%
SFR30                0      0       0      31        0.0%
BITSFR31             0      0       0      32        0.0%
SFR31                0      0       0      32        0.0%


Microchip Technology PIC Macro Assembler V2.05 build -831301201 
Symbol Table                                                                                   Tue Feb 25 09:35:56 2020

                    __CFG_CP$OFF 0000                               l69 0767                              l860 07AA  
                            l862 07C2                              l854 07B2                              l872 07D4  
                            l848 07A0                              l882 07E9                              l788 076E  
                            u157 07E0                     __CFG_BORV$LO 0000                              wreg 0009  
                   ?_EUSART_Read 0077                     __CFG_LVP$OFF 0000          __end_of_PWM1_Initialize 079C  
                           _LATA 010C                             _WPUA 020C                     __CFG_WRT$OFF 0000  
                           _main 079C                             fsr1h 0007                             indf1 0001  
                           fsr1l 0006                             btemp 007E                             start 0001  
 __size_of_OSCILLATOR_Initialize 0005    __end_of_OSCILLATOR_Initialize 0752                            ?_main 0077  
                  __CFG_WDTE$OFF 0000                            _RCREG 0199                            _RCSTA 019D  
                          _TRISA 008C                            _TXREG 019A                            _TXSTA 019E  
                    ?_PWM1_Start 0077               __size_of_PWM1_Stop 0003                   _WDT_Initialize 0749  
                          main@i 0079                   __CFG_BOREN$OFF 0000                            status 0003  
                          wtemp0 007E                   __CFG_MCLRE$OFF 0000                  __initialization 07F7  
                   __end_of_main 07F7                           ??_main 0077                   __CFG_PLLEN$OFF 0000  
         __end_of_WDT_Initialize 074D                           _APFCON 011D                           _ANSELA 018C  
               ?_PWM1_Initialize 0077                           _ODCONA 028C                           _OSCCON 0099  
                         _SPBRGH 019C                           _SPBRGL 019B                           _WDTCON 0097  
                 __CFG_PWRTE$OFF 0000                __end_of_PWM1_Stop 0749              __size_of_PWM1_Start 0003  
                ?_WDT_Initialize 0077             __size_of_EUSART_Read 000D                _SYSTEM_Initialize 0752  
        __end_of__initialization 07FE               ?_SYSTEM_Initialize 0077                   __pcstackCOMMON 0077  
            ??_SYSTEM_Initialize 0077                   _OPTION_REGbits 0095        __end_of_SYSTEM_Initialize 0758  
                     __pnvCOMMON 007A                       __pmaintext 079C                          _BAUDCON 019F  
                        _PWM1DCH 0D94                     ??_PWM1_Start 0077                          _PWM1DCL 0D93  
                        _OSCTUNE 0098                          _PWM1CON 0D9B                          _PWM1OFH 0D98  
                        _PWM1OFL 0D97                          _PWM1PHH 0D92                          _PWM1PHL 0D91  
                        _PWM1PRH 0D96                          _PWM1PRL 0D95               __end_of_PWM1_Start 0746  
                __CFG_STVREN$OFF 0000                          __ptext1 0752                          __ptext2 0749  
                        __ptext3 0782                          __ptext4 0770                          __ptext5 074D  
                        __ptext6 0758                          __ptext7 0746                          __ptext8 0743  
                        __ptext9 0763                          _in_data 007A            _OSCILLATOR_Initialize 074D  
       ??_PIN_MANAGER_Initialize 0077       __size_of_SYSTEM_Initialize 0006             end_of_initialization 07FE  
              _EUSART_Initialize 0758               ?_EUSART_Initialize 0077                        _RCSTAbits 019D  
                      _PWM1LDCON 0D9F                        _PWM1OFCON 0DA0              ??_EUSART_Initialize 0077  
               ??_WDT_Initialize 0077                        _PWM1_Stop 0746                 __CFG_FOSC$INTOSC 0000  
      __end_of_EUSART_Initialize 0763         __size_of_PWM1_Initialize 001A                       ?_PWM1_Stop 0077  
         ?_OSCILLATOR_Initialize 0077              start_initialization 07F7  __size_of_PIN_MANAGER_Initialize 0012  
                  ??_EUSART_Read 0077                    _PWM1LDCONbits 0D9F                 __CFG_LPBOREN$OFF 0000  
                    __pbssCOMMON 0070                        ___latbits 0000       __size_of_EUSART_Initialize 000B  
            __end_of_EUSART_Read 0770           _PIN_MANAGER_Initialize 0770                ??_PWM1_Initialize 0077  
                    ??_PWM1_Stop 0077                         _LATAbits 010C                         _PIR1bits 0011  
                       _PWM1INTE 0D9C                         _PWM1INTF 0D9D                         _PWM1TMRH 0D9A  
                       _PWM1TMRL 0D99                      _EUSART_Read 0763                     _PWM1INTFbits 0D9D  
        ??_OSCILLATOR_Initialize 0077                      _read_buffer 0070                    __size_of_main 005B  
                    _PWM1CONbits 0D9B          __size_of_WDT_Initialize 0004          ?_PIN_MANAGER_Initialize 0077  
              __CFG_CLKOUTEN$OFF 0000                  _PWM1_Initialize 0782                       _PWM1CLKCON 0D9E  
                     _PWM1_Start 0743   __end_of_PIN_MANAGER_Initialize 0782  
